; Function Attrs: mustprogress nofree nounwind willreturn memory(write) uwtable
define zeroext i16 @png_gamma_16bit_correct(i32 noundef %0, i32 noundef %1) local_unnamed_addr #19 {
  %3 = add i32 %0, -1
  %or.cond = icmp ult i32 %3, 65534
  br i1 %or.cond, label %4, label %13

4:                                                ; preds = %2
  %5 = uitofp nneg i32 %0 to double
  %6 = fdiv double %5, 6.553500e+04
  %7 = sitofp i32 %1 to double
  %8 = fmul double %7, 1.000000e-05
  %9 = tail call double @pow(double noundef %6, double noundef %8) #29
  %10 = tail call double @llvm.fmuladd.f64(double %9, double 6.553500e+04, double 5.000000e-01)
  %11 = tail call double @llvm.floor.f64(double %10)
  %12 = fptoui double %11 to i16
  br label %15

13:                                               ; preds = %2
  %14 = trunc i32 %0 to i16
  br label %15

15:                                               ; preds = %13, %4
  %.0 = phi i16 [ %12, %4 ], [ %14, %13 ]
  ret i16 %.0
}